; ModuleID = '56/1966.c'
source_filename = "56/1966.c"
target datalayout = "e-m:e-p270:32:32-p271:32:32-p272:64:64-i64:64-f80:128-n8:16:32:64-S128"
target triple = "x86_64-pc-linux-gnu"

@.str = private unnamed_addr constant [3 x i8] c"%d\00", align 1
@.str.1 = private unnamed_addr constant [11 x i8] c"%d%d%d%d%d\00", align 1
@.str.2 = private unnamed_addr constant [9 x i8] c"%d%d%d%d\00", align 1
@.str.3 = private unnamed_addr constant [5 x i8] c"%d%d\00", align 1

; Function Attrs: noinline nounwind uwtable
define dso_local void @main() #0 {
  %1 = alloca i32, align 4
  %2 = alloca i32, align 4
  %3 = alloca i32, align 4
  %4 = alloca i32, align 4
  %5 = alloca i32, align 4
  %6 = alloca i32, align 4
  %7 = alloca i32, align 4
  %8 = call i32 (i8*, ...) @__isoc99_scanf(i8* getelementptr inbounds ([3 x i8], [3 x i8]* @.str, i64 0, i64 0), i32* %1)
  %9 = load i32, i32* %1, align 4
  %10 = sdiv i32 %9, 10000
  store i32 %10, i32* %2, align 4
  %11 = load i32, i32* %1, align 4
  %12 = sdiv i32 %11, 1000
  %13 = load i32, i32* %2, align 4
  %14 = mul nsw i32 %13, 10
  %15 = sub nsw i32 %12, %14
  store i32 %15, i32* %3, align 4
  %16 = load i32, i32* %1, align 4
  %17 = sdiv i32 %16, 100
  %18 = load i32, i32* %2, align 4
  %19 = mul nsw i32 %18, 100
  %20 = sub nsw i32 %17, %19
  %21 = load i32, i32* %3, align 4
  %22 = mul nsw i32 %21, 10
  %23 = sub nsw i32 %20, %22
  store i32 %23, i32* %4, align 4
  %24 = load i32, i32* %1, align 4
  %25 = sdiv i32 %24, 10
  %26 = load i32, i32* %2, align 4
  %27 = mul nsw i32 %26, 1000
  %28 = sub nsw i32 %25, %27
  %29 = load i32, i32* %3, align 4
  %30 = mul nsw i32 %29, 100
  %31 = sub nsw i32 %28, %30
  %32 = load i32, i32* %4, align 4
  %33 = mul nsw i32 %32, 10
  %34 = sub nsw i32 %31, %33
  store i32 %34, i32* %5, align 4
  %35 = load i32, i32* %1, align 4
  %36 = load i32, i32* %2, align 4
  %37 = mul nsw i32 %36, 10000
  %38 = sub nsw i32 %35, %37
  %39 = load i32, i32* %3, align 4
  %40 = mul nsw i32 %39, 1000
  %41 = sub nsw i32 %38, %40
  %42 = load i32, i32* %4, align 4
  %43 = mul nsw i32 %42, 100
  %44 = sub nsw i32 %41, %43
  %45 = load i32, i32* %5, align 4
  %46 = mul nsw i32 %45, 10
  %47 = sub nsw i32 %44, %46
  store i32 %47, i32* %6, align 4
  %48 = load i32, i32* %2, align 4
  %49 = icmp ne i32 %48, 0
  br i1 %49, label %50, label %57

50:                                               ; preds = %0
  %51 = load i32, i32* %6, align 4
  %52 = load i32, i32* %5, align 4
  %53 = load i32, i32* %4, align 4
  %54 = load i32, i32* %3, align 4
  %55 = load i32, i32* %2, align 4
  %56 = call i32 (i8*, ...) @printf(i8* getelementptr inbounds ([11 x i8], [11 x i8]* @.str.1, i64 0, i64 0), i32 %51, i32 %52, i32 %53, i32 %54, i32 %55)
  br label %96

57:                                               ; preds = %0
  %58 = load i32, i32* %3, align 4
  %59 = icmp ne i32 %58, 0
  br i1 %59, label %60, label %66

60:                                               ; preds = %57
  %61 = load i32, i32* %6, align 4
  %62 = load i32, i32* %5, align 4
  %63 = load i32, i32* %4, align 4
  %64 = load i32, i32* %3, align 4
  %65 = call i32 (i8*, ...) @printf(i8* getelementptr inbounds ([9 x i8], [9 x i8]* @.str.2, i64 0, i64 0), i32 %61, i32 %62, i32 %63, i32 %64)
  br label %95

66:                                               ; preds = %57
  %67 = load i32, i32* %4, align 4
  %68 = icmp ne i32 %67, 0
  br i1 %68, label %69, label %79

69:                                               ; preds = %66
  %70 = load i32, i32* %6, align 4
  %71 = mul nsw i32 100, %70
  %72 = load i32, i32* %5, align 4
  %73 = mul nsw i32 10, %72
  %74 = add nsw i32 %71, %73
  %75 = load i32, i32* %4, align 4
  %76 = add nsw i32 %74, %75
  store i32 %76, i32* %7, align 4
  %77 = load i32, i32* %7, align 4
  %78 = call i32 (i8*, ...) @printf(i8* getelementptr inbounds ([3 x i8], [3 x i8]* @.str, i64 0, i64 0), i32 %77)
  br label %94

79:                                               ; preds = %66
  %80 = load i32, i32* %5, align 4
  %81 = icmp ne i32 %80, 0
  br i1 %81, label %82, label %86

82:                                               ; preds = %79
  %83 = load i32, i32* %6, align 4
  %84 = load i32, i32* %5, align 4
  %85 = call i32 (i8*, ...) @printf(i8* getelementptr inbounds ([5 x i8], [5 x i8]* @.str.3, i64 0, i64 0), i32 %83, i32 %84)
  br label %93

86:                                               ; preds = %79
  %87 = load i32, i32* %6, align 4
  %88 = icmp ne i32 %87, 0
  br i1 %88, label %89, label %92

89:                                               ; preds = %86
  %90 = load i32, i32* %6, align 4
  %91 = call i32 (i8*, ...) @printf(i8* getelementptr inbounds ([3 x i8], [3 x i8]* @.str, i64 0, i64 0), i32 %90)
  br label %92

92:                                               ; preds = %89, %86
  br label %93

93:                                               ; preds = %92, %82
  br label %94

94:                                               ; preds = %93, %69
  br label %95

95:                                               ; preds = %94, %60
  br label %96

96:                                               ; preds = %95, %50
  ret void
}

declare dso_local i32 @__isoc99_scanf(i8*, ...) #1

declare dso_local i32 @printf(i8*, ...) #1


!llvm.module.flags = !{!0}
!llvm.ident = !{!1}

!0 = !{i32 1, !"wchar_size", i32 4}
!1 = !{!"clang version 10.0.0-4ubuntu1 "}
